target datalayout = "e-m:e-p270:32:32-p271:32:32-p272:64:64-i64:64-i128:128-f80:128-n8:16:32:64-S128"
target triple = "x86_64-pc-linux-gnu"

@proto_register_ipa.ett = internal global [2 x ptr] [ptr @ett_ipa, ptr @ett_ipaccess], align 16
@.str.26 = private unnamed_addr constant [42 x i8] c"GSM over IP protocol as used by ip.access\00", align 1
@.str.27 = private unnamed_addr constant [12 x i8] c"GSM over IP\00", align 1
@.str.28 = private unnamed_addr constant [8 x i8] c"gsm_ipa\00", align 1
@proto_ipa = internal global i32 0, align 4
@.str.29 = private unnamed_addr constant [39 x i8] c"GSM over IP ip.access CCM sub-protocol\00", align 1
@.str.30 = private unnamed_addr constant [4 x i8] c"IPA\00", align 1
@.str.31 = private unnamed_addr constant [9 x i8] c"ipaccess\00", align 1
@proto_ipaccess = internal global i32 0, align 4
@.str.32 = private unnamed_addr constant [18 x i8] c"ipa.osmo.protocol\00", align 1
@.str.33 = private unnamed_addr constant [31 x i8] c"GSM over IP ip.access Protocol\00", align 1
@osmo_dissector_table = internal global ptr null, align 8
@.str.34 = private unnamed_addr constant [23 x i8] c"hsl_debug_in_root_tree\00", align 1
@.str.35 = private unnamed_addr constant [41 x i8] c"HSL Debug messages in root protocol tree\00", align 1
@global_ipa_in_root = internal global i8 0, align 1
@.str.36 = private unnamed_addr constant [18 x i8] c"hsl_debug_in_info\00", align 1
@.str.37 = private unnamed_addr constant [34 x i8] c"HSL Debug messages in INFO column\00", align 1
@global_ipa_in_info = internal global i8 0, align 1
@.str.38 = private unnamed_addr constant [12 x i8] c"gsm_ipa.tcp\00", align 1
@ipa_tcp_handle = internal global ptr null, align 8
@.str.39 = private unnamed_addr constant [12 x i8] c"gsm_ipa.udp\00", align 1
@ipa_udp_handle = internal global ptr null, align 8

; Function Attrs: null_pointer_is_valid sspstrong uwtable
define hidden void @proto_register_ipa() #0 {
  %1 = alloca ptr, align 8
  call void @llvm.lifetime.start.p0(i64 8, ptr %1) #3
  %2 = call i32 @proto_register_protocol(ptr noundef @.str.26, ptr noundef @.str.27, ptr noundef @.str.28)
  store i32 %2, ptr @proto_ipa, align 4
  %3 = call i32 @proto_register_protocol(ptr noundef @.str.29, ptr noundef @.str.30, ptr noundef @.str.31)
  store i32 %3, ptr @proto_ipaccess, align 4
  %4 = load i32, ptr @proto_ipa, align 4
  call void @proto_register_field_array(i32 noundef %4, ptr noundef @proto_register_ipa.hf, i32 noundef 5)
  %5 = load i32, ptr @proto_ipaccess, align 4
  call void @proto_register_field_array(i32 noundef %5, ptr noundef @proto_register_ipa.hf_ipa, i32 noundef 4)
  call void @proto_register_subtree_array(ptr noundef @proto_register_ipa.ett, i32 noundef 2)
  %6 = load i32, ptr @proto_ipa, align 4
  %7 = call ptr @register_dissector_table(ptr noundef @.str.32, ptr noundef @.str.33, i32 noundef %6, i32 noundef 4, i32 noundef 1)
  store ptr %7, ptr @osmo_dissector_table, align 8
  %8 = load i32, ptr @proto_ipa, align 4
  %9 = call ptr @prefs_register_protocol(i32 noundef %8, ptr noundef null)
  store ptr %9, ptr %1, align 8
  %10 = load ptr, ptr %1, align 8
  call void @prefs_register_bool_preference(ptr noundef %10, ptr noundef @.str.34, ptr noundef @.str.35, ptr noundef null, ptr noundef @global_ipa_in_root)
  %11 = load ptr, ptr %1, align 8
  call void @prefs_register_bool_preference(ptr noundef %11, ptr noundef @.str.36, ptr noundef @.str.37, ptr noundef null, ptr noundef @global_ipa_in_info)
  %12 = load i32, ptr @proto_ipa, align 4
  %13 = call ptr @register_dissector(ptr noundef @.str.38, ptr noundef @dissect_ipa_tcp, i32 noundef %12)
  store ptr %13, ptr @ipa_tcp_handle, align 8
  %14 = load i32, ptr @proto_ipa, align 4
  %15 = call ptr @register_dissector(ptr noundef @.str.39, ptr noundef @dissect_ipa_udp, i32 noundef %14)
  store ptr %15, ptr @ipa_udp_handle, align 8
  call void @llvm.lifetime.end.p0(i64 8, ptr %1) #3
  ret void
}