; Function Attrs: null_pointer_is_valid sspstrong uwtable
define hidden void @proto_register_ipa() local_unnamed_addr #0 {
  %1 = tail call i32 @proto_register_protocol(ptr noundef nonnull @.str.26, ptr noundef nonnull @.str.27, ptr noundef nonnull @.str.28)
  store i32 %1, ptr @proto_ipa, align 4
  %2 = tail call i32 @proto_register_protocol(ptr noundef nonnull @.str.29, ptr noundef nonnull @.str.30, ptr noundef nonnull @.str.31)
  store i32 %2, ptr @proto_ipaccess, align 4
  %3 = load i32, ptr @proto_ipa, align 4
  tail call void @proto_register_field_array(i32 noundef %3, ptr noundef nonnull @proto_register_ipa.hf, i32 noundef 5)
  %4 = load i32, ptr @proto_ipaccess, align 4
  tail call void @proto_register_field_array(i32 noundef %4, ptr noundef nonnull @proto_register_ipa.hf_ipa, i32 noundef 4)
  tail call void @proto_register_subtree_array(ptr noundef nonnull @proto_register_ipa.ett, i32 noundef 2)
  %5 = load i32, ptr @proto_ipa, align 4
  %6 = tail call ptr @register_dissector_table(ptr noundef nonnull @.str.32, ptr noundef nonnull @.str.33, i32 noundef %5, i32 noundef 4, i32 noundef 1)
  store ptr %6, ptr @osmo_dissector_table, align 8
  %7 = load i32, ptr @proto_ipa, align 4
  %8 = tail call ptr @prefs_register_protocol(i32 noundef %7, ptr noundef null)
  tail call void @prefs_register_bool_preference(ptr noundef %8, ptr noundef nonnull @.str.34, ptr noundef nonnull @.str.35, ptr noundef null, ptr noundef nonnull @global_ipa_in_root)
  tail call void @prefs_register_bool_preference(ptr noundef %8, ptr noundef nonnull @.str.36, ptr noundef nonnull @.str.37, ptr noundef null, ptr noundef nonnull @global_ipa_in_info)
  %9 = load i32, ptr @proto_ipa, align 4
  %10 = tail call ptr @register_dissector(ptr noundef nonnull @.str.38, ptr noundef nonnull @dissect_ipa_tcp, i32 noundef %9)
  store ptr %10, ptr @ipa_tcp_handle, align 8
  %11 = load i32, ptr @proto_ipa, align 4
  %12 = tail call ptr @register_dissector(ptr noundef nonnull @.str.39, ptr noundef nonnull @dissect_ipa_udp, i32 noundef %11)
  store ptr %12, ptr @ipa_udp_handle, align 8
  ret void
}